target datalayout = "e-m:e-p270:32:32-p271:32:32-p272:64:64-i64:64-i128:128-f80:128-n8:16:32:64-S128"
target triple = "x86_64-pc-linux-gnu"

@_ZL21g_fatal_error_handler = internal global ptr null, align 8

; Function Attrs: mustprogress uwtable
define hidden void @_Z11fatal_errori(i32 noundef %0) #5 {
  %2 = alloca i32, align 4
  store i32 %0, ptr %2, align 4, !tbaa !3
  %3 = load ptr, ptr @_ZL21g_fatal_error_handler, align 8, !tbaa !10
  %4 = icmp ne ptr %3, null
  br i1 %4, label %5, label %8

5:                                                ; preds = %1
  %6 = load ptr, ptr @_ZL21g_fatal_error_handler, align 8, !tbaa !10
  %7 = load i32, ptr %2, align 4, !tbaa !3
  call void %6(i32 noundef %7)
  br label %10

8:                                                ; preds = %1
  %9 = load i32, ptr %2, align 4, !tbaa !3
  call void @exit(i32 noundef %9) #10
  unreachable

10:                                               ; preds = %5
  ret void
}