; Function Attrs: mustprogress uwtable
define hidden void @_Z11fatal_errori(i32 noundef %0) local_unnamed_addr #5 {
  %2 = load ptr, ptr @_ZL21g_fatal_error_handler, align 8, !tbaa !10
  %.not = icmp eq ptr %2, null
  br i1 %.not, label %4, label %3

3:                                                ; preds = %1
  tail call void %2(i32 noundef %0)
  ret void

4:                                                ; preds = %1
  tail call void @exit(i32 noundef %0) #12
  unreachable
}